target datalayout = "e-m:e-p270:32:32-p271:32:32-p272:64:64-i64:64-i128:128-f80:128-n8:16:32:64-S128"
target triple = "x86_64-pc-linux-gnu"

@.str.1 = private unnamed_addr constant [15 x i8] c"parse_coerce.c\00", align 1
@.str.2 = private unnamed_addr constant [44 x i8] c"argument of %s must be type %s, not type %s\00", align 1
@.str.3 = private unnamed_addr constant [8 x i8] c"boolean\00", align 1
@__func__.coerce_to_boolean = private unnamed_addr constant [18 x i8] c"coerce_to_boolean\00", align 1
@.str.4 = private unnamed_addr constant [37 x i8] c"argument of %s must not return a set\00", align 1

; Function Attrs: nounwind uwtable
define dso_local ptr @coerce_to_boolean(ptr noundef %0, ptr noundef %1, ptr noundef %2) #0 {
  %4 = alloca ptr, align 8
  %5 = alloca ptr, align 8
  %6 = alloca ptr, align 8
  %7 = alloca i32, align 4
  %8 = alloca ptr, align 8
  store ptr %0, ptr %4, align 8
  store ptr %1, ptr %5, align 8
  store ptr %2, ptr %6, align 8
  call void @llvm.lifetime.start.p0(i64 4, ptr %7) #6
  %9 = load ptr, ptr %5, align 8
  %10 = call i32 @exprType(ptr noundef %9)
  store i32 %10, ptr %7, align 4
  %11 = load i32, ptr %7, align 4
  %12 = icmp ne i32 %11, 16
  br i1 %12, label %13, label %41

13:                                               ; preds = %3
  call void @llvm.lifetime.start.p0(i64 8, ptr %8) #6
  %14 = load ptr, ptr %4, align 8
  %15 = load ptr, ptr %5, align 8
  %16 = load i32, ptr %7, align 4
  %17 = call ptr @coerce_to_target_type(ptr noundef %14, ptr noundef %15, i32 noundef %16, i32 noundef 16, i32 noundef -1, i32 noundef 1, i32 noundef 2, i32 noundef -1)
  store ptr %17, ptr %8, align 8
  %18 = load ptr, ptr %8, align 8
  %19 = icmp eq ptr %18, null
  br i1 %19, label %20, label %39

20:                                               ; preds = %13
  br label %21

21:                                               ; preds = %20
  br i1 true, label %22, label %24

22:                                               ; preds = %21
  %23 = call zeroext i1 @errstart_cold(i32 noundef 21, ptr noundef null) #7
  br i1 %23, label %26, label %36

24:                                               ; preds = %21
  %25 = call zeroext i1 @errstart(i32 noundef 21, ptr noundef null)
  br i1 %25, label %26, label %36

26:                                               ; preds = %24, %22
  %27 = call i32 @errcode(i32 noundef 67141764)
  %28 = load ptr, ptr %6, align 8
  %29 = load i32, ptr %7, align 4
  %30 = call ptr @format_type_be(i32 noundef %29)
  %31 = call i32 (ptr, ...) @errmsg(ptr noundef @.str.2, ptr noundef %28, ptr noundef @.str.3, ptr noundef %30)
  %32 = load ptr, ptr %4, align 8
  %33 = load ptr, ptr %5, align 8
  %34 = call i32 @exprLocation(ptr noundef %33)
  %35 = call i32 @parser_errposition(ptr noundef %32, i32 noundef %34)
  call void @errfinish(ptr noundef @.str.1, i32 noundef 1180, ptr noundef @__func__.coerce_to_boolean)
  br label %36

36:                                               ; preds = %26, %24, %22
  unreachable

37:                                               ; No predecessors!
  br label %38

38:                                               ; preds = %37
  br label %39

39:                                               ; preds = %38, %13
  %40 = load ptr, ptr %8, align 8
  store ptr %40, ptr %5, align 8
  call void @llvm.lifetime.end.p0(i64 8, ptr %8) #6
  br label %41

41:                                               ; preds = %39, %3
  %42 = load ptr, ptr %5, align 8
  %43 = call zeroext i1 @expression_returns_set(ptr noundef %42)
  br i1 %43, label %44, label %61

44:                                               ; preds = %41
  br label %45

45:                                               ; preds = %44
  br i1 true, label %46, label %48

46:                                               ; preds = %45
  %47 = call zeroext i1 @errstart_cold(i32 noundef 21, ptr noundef null) #7
  br i1 %47, label %50, label %58

48:                                               ; preds = %45
  %49 = call zeroext i1 @errstart(i32 noundef 21, ptr noundef null)
  br i1 %49, label %50, label %58

50:                                               ; preds = %48, %46
  %51 = call i32 @errcode(i32 noundef 67141764)
  %52 = load ptr, ptr %6, align 8
  %53 = call i32 (ptr, ...) @errmsg(ptr noundef @.str.4, ptr noundef %52)
  %54 = load ptr, ptr %4, align 8
  %55 = load ptr, ptr %5, align 8
  %56 = call i32 @exprLocation(ptr noundef %55)
  %57 = call i32 @parser_errposition(ptr noundef %54, i32 noundef %56)
  call void @errfinish(ptr noundef @.str.1, i32 noundef 1190, ptr noundef @__func__.coerce_to_boolean)
  br label %58

58:                                               ; preds = %50, %48, %46
  unreachable

59:                                               ; No predecessors!
  br label %60

60:                                               ; preds = %59
  br label %61

61:                                               ; preds = %60, %41
  %62 = load ptr, ptr %5, align 8
  call void @llvm.lifetime.end.p0(i64 4, ptr %7) #6
  ret ptr %62
}