; Function Attrs: nounwind uwtable
define dso_local noundef ptr @coerce_to_boolean(ptr noundef %0, ptr noundef %1, ptr noundef %2) local_unnamed_addr #0 {
  %4 = tail call i32 @exprType(ptr noundef %1) #5
  %.not = icmp eq i32 %4, 16
  br i1 %.not, label %15, label %5

5:                                                ; preds = %3
  %6 = tail call ptr @coerce_to_target_type(ptr noundef %0, ptr noundef %1, i32 noundef %4, i32 noundef 16, i32 noundef -1, i32 noundef 1, i32 noundef 2, i32 noundef -1)
  %7 = icmp eq ptr %6, null
  br i1 %7, label %8, label %15

8:                                                ; preds = %5
  %9 = tail call zeroext i1 @errstart_cold(i32 noundef 21, ptr noundef null) #6
  tail call void @llvm.assume(i1 %9)
  %10 = tail call i32 @errcode(i32 noundef 67141764) #5
  %11 = tail call ptr @format_type_be(i32 noundef %4) #5
  %12 = tail call i32 (ptr, ...) @errmsg(ptr noundef nonnull @.str.2, ptr noundef %2, ptr noundef nonnull @.str.3, ptr noundef %11) #5
  %13 = tail call i32 @exprLocation(ptr noundef %1) #5
  %14 = tail call i32 @parser_errposition(ptr noundef %0, i32 noundef %13) #5
  tail call void @errfinish(ptr noundef nonnull @.str.1, i32 noundef 1180, ptr noundef nonnull @__func__.coerce_to_boolean) #5
  unreachable

15:                                               ; preds = %5, %3
  %.0 = phi ptr [ %1, %3 ], [ %6, %5 ]
  %16 = tail call zeroext i1 @expression_returns_set(ptr noundef %.0) #5
  br i1 %16, label %17, label %23

17:                                               ; preds = %15
  %18 = tail call zeroext i1 @errstart_cold(i32 noundef 21, ptr noundef null) #6
  tail call void @llvm.assume(i1 %18)
  %19 = tail call i32 @errcode(i32 noundef 67141764) #5
  %20 = tail call i32 (ptr, ...) @errmsg(ptr noundef nonnull @.str.4, ptr noundef %2) #5
  %21 = tail call i32 @exprLocation(ptr noundef %.0) #5
  %22 = tail call i32 @parser_errposition(ptr noundef %0, i32 noundef %21) #5
  tail call void @errfinish(ptr noundef nonnull @.str.1, i32 noundef 1190, ptr noundef nonnull @__func__.coerce_to_boolean) #5
  unreachable

23:                                               ; preds = %15
  ret ptr %.0
}